target datalayout = "e-m:e-p270:32:32-p271:32:32-p272:64:64-i64:64-i128:128-f80:128-n8:16:32:64-S128"
target triple = "x86_64-pc-linux-gnu"

%"class.icu_77::ParseData" = type { %"class.icu_77::SymbolTable", ptr, ptr, ptr }
%"class.icu_77::SymbolTable" = type { ptr }

@_ZTVN6icu_7711SymbolTableE = available_externally unnamed_addr constant { [7 x ptr] } { [7 x ptr] [ptr null, ptr @_ZTIN6icu_7711SymbolTableE, ptr @_ZN6icu_7711SymbolTableD1Ev, ptr @_ZN6icu_7711SymbolTableD0Ev, ptr @__cxa_pure_virtual, ptr @__cxa_pure_virtual, ptr @__cxa_pure_virtual] }, align 8

; Function Attrs: inlinehint mustprogress nounwind uwtable
define linkonce_odr void @_ZN6icu_7711SymbolTableC2Ev(ptr noundef nonnull align 8 dereferenceable(8) %0) unnamed_addr #2 comdat align 2 {
  %2 = alloca ptr, align 8
  store ptr %0, ptr %2, align 8, !tbaa !38
  %3 = load ptr, ptr %2, align 8
  store ptr getelementptr inbounds inrange(-16, 40) ({ [7 x ptr] }, ptr @_ZTVN6icu_7711SymbolTableE, i32 0, i32 0, i32 2), ptr %3, align 8, !tbaa !31
  ret void
}

; Function Attrs: mustprogress nounwind uwtable
define void @_ZN6icu_779ParseDataC2EPKNS_23TransliterationRuleDataEPKNS_7UVectorEPKNS_9HashtableE(ptr noundef nonnull align 8 dereferenceable(32) %0, ptr noundef %1, ptr noundef %2, ptr noundef %3) unnamed_addr #0 align 2 {
  %5 = alloca ptr, align 8
  %6 = alloca ptr, align 8
  %7 = alloca ptr, align 8
  %8 = alloca ptr, align 8
  store ptr %0, ptr %5, align 8, !tbaa !23
  store ptr %1, ptr %6, align 8, !tbaa !25
  store ptr %2, ptr %7, align 8, !tbaa !27
  store ptr %3, ptr %8, align 8, !tbaa !29
  %9 = load ptr, ptr %5, align 8
  call void @_ZN6icu_7711SymbolTableC2Ev(ptr noundef nonnull align 8 dereferenceable(8) %9) #11
  store ptr getelementptr inbounds inrange(-16, 40) ({ [7 x ptr] }, ptr @_ZTVN6icu_779ParseDataE, i32 0, i32 0, i32 2), ptr %9, align 8, !tbaa !31
  %10 = getelementptr inbounds nuw %"class.icu_77::ParseData", ptr %9, i32 0, i32 1
  %11 = load ptr, ptr %6, align 8, !tbaa !25
  store ptr %11, ptr %10, align 8, !tbaa !33
  %12 = getelementptr inbounds nuw %"class.icu_77::ParseData", ptr %9, i32 0, i32 2
  %13 = load ptr, ptr %7, align 8, !tbaa !27
  store ptr %13, ptr %12, align 8, !tbaa !36
  %14 = getelementptr inbounds nuw %"class.icu_77::ParseData", ptr %9, i32 0, i32 3
  %15 = load ptr, ptr %8, align 8, !tbaa !29
  store ptr %15, ptr %14, align 8, !tbaa !37
  ret void
}